target datalayout = "e-m:e-p270:32:32-p271:32:32-p272:64:64-i64:64-i128:128-f80:128-n8:16:32:64-S128"
target triple = "x86_64-unknown-linux-gnu"

%struct.BlockLimits = type { i32, i64, i32, i64, i32, i32, i32, i64, i32, i64, i64, i32, i8, i32, i32, i32, i32, i32, i32, i32 }
%struct.BlockDriverState = type { i32, i8, i8, i8, i8, i8, ptr, ptr, ptr, %struct.anon.1, i8, [4096 x i8], [4096 x i8], [4096 x i8], [16 x i8], ptr, [4096 x i8], %struct.BlockLimits, i32, i32, i32, i32, [32 x i8], %union.anon, %union.anon.2, %union.anon.3, i32, [16 x %struct.anon.4], ptr, %struct.anon.5, ptr, ptr, %struct.anon.6, ptr, ptr, i32, ptr, i64, i64, %struct.QemuMutex, %struct.anon.7, %struct.Stat64, i32, i32, i32, i32, i32, i32, %struct.QemuMutex, %struct.anon.8, %struct.CoQueue, i8, i32, i8, %struct.CoMutex, ptr, ptr }
%struct.anon.1 = type { ptr }
%union.anon = type { %struct.QTailQLink }
%struct.QTailQLink = type { ptr, ptr }
%union.anon.2 = type { %struct.QTailQLink }
%union.anon.3 = type { %struct.QTailQLink }
%struct.anon.4 = type { ptr }
%struct.anon.5 = type { ptr }
%struct.anon.6 = type { ptr }
%struct.anon.7 = type { ptr }
%struct.Stat64 = type { i64 }
%struct.QemuMutex = type { %union.pthread_mutex_t, i8 }
%union.pthread_mutex_t = type { %struct.__pthread_mutex_s }
%struct.__pthread_mutex_s = type { i32, i32, i32, i32, i32, i16, i16, %struct.__pthread_internal_list }
%struct.__pthread_internal_list = type { ptr, ptr }
%struct.anon.8 = type { ptr }
%struct.CoQueue = type { %struct.anon.9 }
%struct.anon.9 = type { ptr, ptr }
%struct.CoMutex = type { i32, ptr, %struct.anon.10, %struct.anon.10, i32, i32, ptr }
%struct.anon.10 = type { ptr }
%struct.BlockDriver = type { ptr, i32, i8, i8, i8, i8, i8, i8, ptr, ptr, ptr, ptr, ptr, ptr, ptr, ptr, ptr, ptr, ptr, ptr, ptr, ptr, ptr, ptr, ptr, ptr, ptr, ptr, ptr, ptr, ptr, ptr, ptr, ptr, ptr, ptr, ptr, ptr, ptr, ptr, ptr, ptr, ptr, ptr, ptr, ptr, ptr, ptr, ptr, ptr, ptr, ptr, ptr, ptr, ptr, ptr, ptr, ptr, ptr, ptr, ptr, %struct.anon.11, ptr, ptr, ptr, ptr, ptr, ptr, ptr, ptr, ptr, ptr, ptr, ptr, ptr, ptr, ptr, ptr, ptr, ptr, ptr, ptr, ptr, ptr, ptr, ptr, ptr, ptr, ptr, ptr, ptr, ptr, ptr, ptr, ptr, ptr, ptr, ptr, ptr, ptr, ptr, ptr, ptr, ptr, ptr, ptr, ptr, ptr, ptr, ptr, ptr }
%struct.anon.11 = type { ptr, ptr }
%struct.QEMUIOVector = type { ptr, i32, %union.anon.13 }
%union.anon.13 = type { %struct.anon.14 }
%struct.anon.14 = type { i32, %struct.iovec }
%struct.iovec = type { ptr, i64 }
%struct.anon.15 = type { [12 x i8], i64 }
%struct.CoroutineIOCompletion = type { ptr, i32 }

@.str.4 = private unnamed_addr constant [13 x i8] c"coroutine_fn\00", section "llvm.metadata"
@.str.5 = private unnamed_addr constant [111 x i8] c"/home/dtcxzyw/WorkSpace/Projects/compilers/llvm-opt-benchmark/bench/qemu/qemu/include/block/block_int-common.h\00", section "llvm.metadata"

; Function Attrs: nounwind sspstrong uwtable
define dso_local void @bdrv_wakeup(ptr noundef %bs) #0 {
entry:
  %bs.addr = alloca ptr, align 8
  store ptr %bs, ptr %bs.addr, align 8
  br label %do.body

do.body:                                          ; preds = %entry
  br label %do.end

do.end:                                           ; preds = %do.body
  call void @aio_wait_kick()
  ret void
}

; Function Attrs: nounwind sspstrong uwtable
define dso_local void @bdrv_dec_in_flight(ptr noundef %bs) #0 {
entry:
  %bs.addr = alloca ptr, align 8
  %.atomictmp = alloca i32, align 4
  %atomic-temp = alloca i32, align 4
  store ptr %bs, ptr %bs.addr, align 8
  br label %do.body

do.body:                                          ; preds = %entry
  br label %do.end

do.end:                                           ; preds = %do.body
  %0 = load ptr, ptr %bs.addr, align 8
  %in_flight = getelementptr inbounds %struct.BlockDriverState, ptr %0, i32 0, i32 43
  store i32 1, ptr %.atomictmp, align 4
  %1 = load i32, ptr %.atomictmp, align 4
  %2 = atomicrmw sub ptr %in_flight, i32 %1 seq_cst, align 4
  store i32 %2, ptr %atomic-temp, align 4
  %3 = load ptr, ptr %bs.addr, align 8
  call void @bdrv_wakeup(ptr noundef %3)
  ret void
}

; Function Attrs: nounwind sspstrong uwtable
define dso_local void @bdrv_inc_in_flight(ptr noundef %bs) #0 {
entry:
  %bs.addr = alloca ptr, align 8
  %.atomictmp = alloca i32, align 4
  %atomic-temp = alloca i32, align 4
  store ptr %bs, ptr %bs.addr, align 8
  br label %do.body

do.body:                                          ; preds = %entry
  br label %do.end

do.end:                                           ; preds = %do.body
  %0 = load ptr, ptr %bs.addr, align 8
  %in_flight = getelementptr inbounds %struct.BlockDriverState, ptr %0, i32 0, i32 43
  store i32 1, ptr %.atomictmp, align 4
  %1 = load i32, ptr %.atomictmp, align 4
  %2 = atomicrmw add ptr %in_flight, i32 %1 seq_cst, align 4
  store i32 %2, ptr %atomic-temp, align 4
  ret void
}

; Function Attrs: nounwind sspstrong uwtable
define dso_local i32 @bdrv_co_zone_append(ptr noundef %bs, ptr noundef %offset, ptr noundef %qiov, i32 noundef %flags) #0 {
entry:
  %retval = alloca i32, align 4
  %bs.addr = alloca ptr, align 8
  %offset.addr = alloca ptr, align 8
  %qiov.addr = alloca ptr, align 8
  %flags.addr = alloca i32, align 4
  %ret = alloca i32, align 4
  %drv = alloca ptr, align 8
  %co = alloca %struct.CoroutineIOCompletion, align 8
  store ptr %bs, ptr %bs.addr, align 8
  store ptr %offset, ptr %offset.addr, align 8
  store ptr %qiov, ptr %qiov.addr, align 8
  store i32 %flags, ptr %flags.addr, align 4
  %0 = load ptr, ptr %bs.addr, align 8
  %drv1 = getelementptr inbounds %struct.BlockDriverState, ptr %0, i32 0, i32 6
  %1 = load ptr, ptr %drv1, align 8
  store ptr %1, ptr %drv, align 8
  %coroutine = getelementptr inbounds %struct.CoroutineIOCompletion, ptr %co, i32 0, i32 0
  %call = call ptr @qemu_coroutine_self()
  store ptr %call, ptr %coroutine, align 8
  %ret2 = getelementptr inbounds %struct.CoroutineIOCompletion, ptr %co, i32 0, i32 1
  store i32 0, ptr %ret2, align 8
  br label %do.body

do.body:                                          ; preds = %entry
  br label %do.end

do.end:                                           ; preds = %do.body
  %2 = load ptr, ptr %offset.addr, align 8
  %3 = load i64, ptr %2, align 8
  %4 = load ptr, ptr %qiov.addr, align 8
  %5 = getelementptr inbounds %struct.QEMUIOVector, ptr %4, i32 0, i32 2
  %size = getelementptr inbounds %struct.anon.15, ptr %5, i32 0, i32 1
  %6 = load i64, ptr %size, align 8
  %7 = load ptr, ptr %qiov.addr, align 8
  %call3 = call i32 @bdrv_check_qiov_request(i64 noundef %3, i64 noundef %6, ptr noundef %7, i64 noundef 0, ptr noundef null)
  store i32 %call3, ptr %ret, align 4
  %8 = load i32, ptr %ret, align 4
  %cmp = icmp slt i32 %8, 0
  br i1 %cmp, label %if.then, label %if.end

if.then:                                          ; preds = %do.end
  %9 = load i32, ptr %ret, align 4
  store i32 %9, ptr %retval, align 4
  br label %return

if.end:                                           ; preds = %do.end
  %10 = load ptr, ptr %bs.addr, align 8
  call void @bdrv_inc_in_flight(ptr noundef %10)
  %11 = load ptr, ptr %drv, align 8
  %tobool = icmp ne ptr %11, null
  br i1 %tobool, label %lor.lhs.false, label %if.then7

lor.lhs.false:                                    ; preds = %if.end
  %12 = load ptr, ptr %drv, align 8
  %bdrv_co_zone_append = getelementptr inbounds %struct.BlockDriver, ptr %12, i32 0, i32 100
  %13 = call ptr @llvm.ptr.annotation.p0.p0(ptr %bdrv_co_zone_append, ptr @.str.4, ptr @.str.5, i32 749, ptr null)
  %14 = load ptr, ptr %13, align 8
  %tobool4 = icmp ne ptr %14, null
  br i1 %tobool4, label %lor.lhs.false5, label %if.then7

lor.lhs.false5:                                   ; preds = %lor.lhs.false
  %15 = load ptr, ptr %bs.addr, align 8
  %bl = getelementptr inbounds %struct.BlockDriverState, ptr %15, i32 0, i32 17
  %zoned = getelementptr inbounds %struct.BlockLimits, ptr %bl, i32 0, i32 13
  %16 = load i32, ptr %zoned, align 8
  %cmp6 = icmp eq i32 %16, 0
  br i1 %cmp6, label %if.then7, label %if.end9

if.then7:                                         ; preds = %lor.lhs.false5, %lor.lhs.false, %if.end
  %ret8 = getelementptr inbounds %struct.CoroutineIOCompletion, ptr %co, i32 0, i32 1
  store i32 -95, ptr %ret8, align 8
  br label %out

if.end9:                                          ; preds = %lor.lhs.false5
  %17 = load ptr, ptr %drv, align 8
  %bdrv_co_zone_append10 = getelementptr inbounds %struct.BlockDriver, ptr %17, i32 0, i32 100
  %18 = call ptr @llvm.ptr.annotation.p0.p0(ptr %bdrv_co_zone_append10, ptr @.str.4, ptr @.str.5, i32 749, ptr null)
  %19 = load ptr, ptr %18, align 8
  %20 = load ptr, ptr %bs.addr, align 8
  %21 = load ptr, ptr %offset.addr, align 8
  %22 = load ptr, ptr %qiov.addr, align 8
  %23 = load i32, ptr %flags.addr, align 4
  %call11 = call i32 %19(ptr noundef %20, ptr noundef %21, ptr noundef %22, i32 noundef %23)
  %ret12 = getelementptr inbounds %struct.CoroutineIOCompletion, ptr %co, i32 0, i32 1
  store i32 %call11, ptr %ret12, align 8
  br label %out

out:                                              ; preds = %if.end9, %if.then7
  %24 = load ptr, ptr %bs.addr, align 8
  call void @bdrv_dec_in_flight(ptr noundef %24)
  %ret13 = getelementptr inbounds %struct.CoroutineIOCompletion, ptr %co, i32 0, i32 1
  %25 = load i32, ptr %ret13, align 8
  store i32 %25, ptr %retval, align 4
  br label %return

return:                                           ; preds = %out, %if.then
  %26 = load i32, ptr %retval, align 4
  ret i32 %26
}