; Function Attrs: nounwind sspstrong uwtable
define dso_local i32 @bdrv_co_zone_append(ptr noundef %bs, ptr noundef %offset, ptr noundef %qiov, i32 noundef %flags) #0 {
entry:
  %drv1 = getelementptr inbounds nuw i8, ptr %bs, i64 16
  %0 = load ptr, ptr %drv1, align 8
  %call = tail call ptr @qemu_coroutine_self() #15
  %1 = load i64, ptr %offset, align 8
  %size = getelementptr inbounds nuw i8, ptr %qiov, i64 32
  %2 = load i64, ptr %size, align 8
  %call3 = tail call i32 @bdrv_check_qiov_request(i64 noundef %1, i64 noundef %2, ptr noundef %qiov, i64 noundef 0, ptr noundef null)
  %cmp = icmp slt i32 %call3, 0
  br i1 %cmp, label %return, label %if.end

if.end:                                           ; preds = %entry
  %in_flight.i = getelementptr inbounds nuw i8, ptr %bs, i64 16972
  %3 = atomicrmw add ptr %in_flight.i, i32 1 seq_cst, align 4
  %tobool.not = icmp eq ptr %0, null
  br i1 %tobool.not, label %out, label %lor.lhs.false

lor.lhs.false:                                    ; preds = %if.end
  %bdrv_co_zone_append = getelementptr inbounds nuw i8, ptr %0, i64 768
  %4 = tail call ptr @llvm.ptr.annotation.p0.p0(ptr nonnull %bdrv_co_zone_append, ptr nonnull @.str.4, ptr nonnull @.str.5, i32 749, ptr null)
  %5 = load ptr, ptr %4, align 8
  %tobool4.not = icmp eq ptr %5, null
  br i1 %tobool4.not, label %out, label %lor.lhs.false5

lor.lhs.false5:                                   ; preds = %lor.lhs.false
  %zoned = getelementptr inbounds nuw i8, ptr %bs, i64 16552
  %6 = load i32, ptr %zoned, align 8
  %cmp6 = icmp eq i32 %6, 0
  br i1 %cmp6, label %out, label %if.end9

if.end9:                                          ; preds = %lor.lhs.false5
  %7 = tail call ptr @llvm.ptr.annotation.p0.p0(ptr nonnull %bdrv_co_zone_append, ptr nonnull @.str.4, ptr nonnull @.str.5, i32 749, ptr null)
  %8 = load ptr, ptr %7, align 8
  %call11 = tail call i32 %8(ptr noundef nonnull %bs, ptr noundef nonnull %offset, ptr noundef nonnull %qiov, i32 noundef %flags) #15
  br label %out

out:                                              ; preds = %if.end, %lor.lhs.false, %lor.lhs.false5, %if.end9
  %co.sroa.1.0 = phi i32 [ %call11, %if.end9 ], [ -95, %lor.lhs.false5 ], [ -95, %lor.lhs.false ], [ -95, %if.end ]
  %9 = atomicrmw sub ptr %in_flight.i, i32 1 seq_cst, align 4
  tail call void @aio_wait_kick() #15
  br label %return

return:                                           ; preds = %entry, %out
  %retval.0 = phi i32 [ %co.sroa.1.0, %out ], [ %call3, %entry ]
  ret i32 %retval.0
}